; ModuleID = '22/863.c'
source_filename = "22/863.c"
target datalayout = "e-m:e-p270:32:32-p271:32:32-p272:64:64-i64:64-f80:128-n8:16:32:64-S128"
target triple = "x86_64-pc-linux-gnu"

@.str = private unnamed_addr constant [5 x i8] c"%d%c\00", align 1
@.str.1 = private unnamed_addr constant [3 x i8] c"No\00", align 1
@.str.2 = private unnamed_addr constant [3 x i8] c"%d\00", align 1

; Function Attrs: noinline nounwind uwtable
define dso_local i32 @main() #0 {
  %1 = alloca i32, align 4
  %2 = alloca i32, align 4
  %3 = alloca i32, align 4
  %4 = alloca i32, align 4
  %5 = alloca i32, align 4
  %6 = alloca i8, align 1
  store i32 0, i32* %1, align 4
  store i32 -1, i32* %3, align 4
  %7 = call i32 (i8*, ...) @__isoc99_scanf(i8* getelementptr inbounds ([5 x i8], [5 x i8]* @.str, i64 0, i64 0), i32* %2, i8* %6)
  %8 = load i32, i32* %2, align 4
  store i32 %8, i32* %5, align 4
  %9 = load i8, i8* %6, align 1
  %10 = sext i8 %9 to i32
  %11 = icmp eq i32 %10, 10
  br i1 %11, label %12, label %14

12:                                               ; preds = %0
  %13 = call i32 (i8*, ...) @printf(i8* getelementptr inbounds ([3 x i8], [3 x i8]* @.str.1, i64 0, i64 0))
  br label %56

14:                                               ; preds = %0
  br label %15

15:                                               ; preds = %38, %14
  %16 = load i8, i8* %6, align 1
  %17 = sext i8 %16 to i32
  %18 = icmp eq i32 %17, 44
  br i1 %18, label %19, label %39

19:                                               ; preds = %15
  %20 = call i32 (i8*, ...) @__isoc99_scanf(i8* getelementptr inbounds ([5 x i8], [5 x i8]* @.str, i64 0, i64 0), i32* %4, i8* %6)
  %21 = load i32, i32* %4, align 4
  %22 = load i32, i32* %3, align 4
  %23 = icmp sgt i32 %21, %22
  br i1 %23, label %24, label %30

24:                                               ; preds = %19
  %25 = load i32, i32* %4, align 4
  %26 = load i32, i32* %2, align 4
  %27 = icmp slt i32 %25, %26
  br i1 %27, label %28, label %30

28:                                               ; preds = %24
  %29 = load i32, i32* %4, align 4
  store i32 %29, i32* %3, align 4
  br label %38

30:                                               ; preds = %24, %19
  %31 = load i32, i32* %4, align 4
  %32 = load i32, i32* %2, align 4
  %33 = icmp sgt i32 %31, %32
  br i1 %33, label %34, label %37

34:                                               ; preds = %30
  %35 = load i32, i32* %2, align 4
  store i32 %35, i32* %3, align 4
  %36 = load i32, i32* %4, align 4
  store i32 %36, i32* %2, align 4
  br label %37

37:                                               ; preds = %34, %30
  br label %38

38:                                               ; preds = %37, %28
  br label %15

39:                                               ; preds = %15
  %40 = load i32, i32* %2, align 4
  %41 = load i32, i32* %5, align 4
  %42 = icmp eq i32 %40, %41
  br i1 %42, label %43, label %47

43:                                               ; preds = %39
  %44 = load i32, i32* %3, align 4
  %45 = load i32, i32* %5, align 4
  %46 = icmp eq i32 %44, %45
  br i1 %46, label %50, label %47

47:                                               ; preds = %43, %39
  %48 = load i32, i32* %3, align 4
  %49 = icmp eq i32 %48, -1
  br i1 %49, label %50, label %52

50:                                               ; preds = %47, %43
  %51 = call i32 (i8*, ...) @printf(i8* getelementptr inbounds ([3 x i8], [3 x i8]* @.str.1, i64 0, i64 0))
  br label %55

52:                                               ; preds = %47
  %53 = load i32, i32* %3, align 4
  %54 = call i32 (i8*, ...) @printf(i8* getelementptr inbounds ([3 x i8], [3 x i8]* @.str.2, i64 0, i64 0), i32 %53)
  br label %55

55:                                               ; preds = %52, %50
  br label %56

56:                                               ; preds = %55, %12
  %57 = load i32, i32* %1, align 4
  ret i32 %57
}

declare dso_local i32 @__isoc99_scanf(i8*, ...) #1

declare dso_local i32 @printf(i8*, ...) #1


!llvm.module.flags = !{!0}
!llvm.ident = !{!1}

!0 = !{i32 1, !"wchar_size", i32 4}
!1 = !{!"clang version 10.0.0-4ubuntu1 "}
