; ModuleID = 'source-C-CXX/21/863.c'
source_filename = "source-C-CXX/21/863.c"
target datalayout = "e-m:e-p270:32:32-p271:32:32-p272:64:64-i64:64-f80:128-n8:16:32:64-S128"
target triple = "x86_64-pc-linux-gnu"

@.str = private unnamed_addr constant [5 x i8] c"%d%c\00", align 1
@.str.1 = private unnamed_addr constant [3 x i8] c"No\00", align 1
@.str.2 = private unnamed_addr constant [3 x i8] c"%d\00", align 1

; Function Attrs: nofree nounwind sspstrong uwtable
define dso_local i32 @main() local_unnamed_addr #0 {
  %1 = alloca i32, align 4
  %2 = alloca i32, align 4
  %3 = alloca i8, align 1
  %4 = bitcast i32* %1 to i8*
  call void @llvm.lifetime.start.p0i8(i64 4, i8* nonnull %4) #3
  %5 = bitcast i32* %2 to i8*
  call void @llvm.lifetime.start.p0i8(i64 4, i8* nonnull %5) #3
  call void @llvm.lifetime.start.p0i8(i64 1, i8* nonnull %3) #3
  %6 = call i32 (i8*, ...) @__isoc99_scanf(i8* getelementptr inbounds ([5 x i8], [5 x i8]* @.str, i64 0, i64 0), i32* nonnull %1, i8* nonnull %3)
  %7 = load i32, i32* %1, align 4, !tbaa !5
  %8 = load i8, i8* %3, align 1, !tbaa !9
  switch i8 %8, label %35 [
    i8 10, label %9
    i8 44, label %11
  ]

9:                                                ; preds = %0
  %10 = call i32 (i8*, ...) @printf(i8* nonnull dereferenceable(1) getelementptr inbounds ([3 x i8], [3 x i8]* @.str.1, i64 0, i64 0))
  br label %39

11:                                               ; preds = %0, %22
  %12 = phi i32 [ %24, %22 ], [ -1, %0 ]
  %13 = call i32 (i8*, ...) @__isoc99_scanf(i8* getelementptr inbounds ([5 x i8], [5 x i8]* @.str, i64 0, i64 0), i32* nonnull %2, i8* nonnull %3)
  %14 = load i32, i32* %2, align 4, !tbaa !5
  %15 = icmp sgt i32 %14, %12
  %16 = load i32, i32* %1, align 4
  %17 = icmp slt i32 %14, %16
  %18 = select i1 %15, i1 %17, i1 false
  br i1 %18, label %22, label %19

19:                                               ; preds = %11
  %20 = icmp sgt i32 %14, %16
  br i1 %20, label %21, label %22

21:                                               ; preds = %19
  store i32 %14, i32* %1, align 4, !tbaa !5
  br label %22

22:                                               ; preds = %11, %19, %21
  %23 = phi i32 [ %14, %21 ], [ %16, %19 ], [ %16, %11 ]
  %24 = phi i32 [ %16, %21 ], [ %12, %19 ], [ %14, %11 ]
  %25 = load i8, i8* %3, align 1, !tbaa !9
  %26 = icmp eq i8 %25, 44
  br i1 %26, label %11, label %27, !llvm.loop !10

27:                                               ; preds = %22
  %28 = icmp eq i32 %23, %7
  br i1 %28, label %29, label %33

29:                                               ; preds = %27
  %30 = icmp eq i32 %24, %7
  %31 = icmp eq i32 %24, -1
  %32 = or i1 %30, %31
  br i1 %32, label %35, label %37

33:                                               ; preds = %27
  %34 = icmp eq i32 %24, -1
  br i1 %34, label %35, label %37

35:                                               ; preds = %0, %33, %29
  %36 = call i32 (i8*, ...) @printf(i8* nonnull dereferenceable(1) getelementptr inbounds ([3 x i8], [3 x i8]* @.str.1, i64 0, i64 0))
  br label %39

37:                                               ; preds = %29, %33
  %38 = call i32 (i8*, ...) @printf(i8* nonnull dereferenceable(1) getelementptr inbounds ([3 x i8], [3 x i8]* @.str.2, i64 0, i64 0), i32 %24)
  br label %39

39:                                               ; preds = %35, %37, %9
  call void @llvm.lifetime.end.p0i8(i64 1, i8* nonnull %3) #3
  call void @llvm.lifetime.end.p0i8(i64 4, i8* nonnull %5) #3
  call void @llvm.lifetime.end.p0i8(i64 4, i8* nonnull %4) #3
  ret i32 0
}

; Function Attrs: argmemonly mustprogress nofree nosync nounwind willreturn
declare void @llvm.lifetime.start.p0i8(i64 immarg, i8* nocapture) #1

; Function Attrs: nofree nounwind
declare noundef i32 @__isoc99_scanf(i8* nocapture noundef readonly, ...) local_unnamed_addr #2

; Function Attrs: nofree nounwind
declare noundef i32 @printf(i8* nocapture noundef readonly, ...) local_unnamed_addr #2

; Function Attrs: argmemonly mustprogress nofree nosync nounwind willreturn
declare void @llvm.lifetime.end.p0i8(i64 immarg, i8* nocapture) #1


!llvm.module.flags = !{!0, !1, !2, !3}
!llvm.ident = !{!4}

!0 = !{i32 1, !"wchar_size", i32 4}
!1 = !{i32 7, !"PIC Level", i32 2}
!2 = !{i32 7, !"PIE Level", i32 2}
!3 = !{i32 7, !"uwtable", i32 1}
!4 = !{!"clang version 13.0.0"}
!5 = !{!6, !6, i64 0}
!6 = !{!"int", !7, i64 0}
!7 = !{!"omnipotent char", !8, i64 0}
!8 = !{!"Simple C/C++ TBAA"}
!9 = !{!7, !7, i64 0}
!10 = distinct !{!10, !11}
!11 = !{!"llvm.loop.mustprogress"}
